(dp1
I4000
(lp2
I56
aI126
aI63
aI78
aI3
asI1000
(lp3
I73
aI124
aI179
aI24
aI59
asI9000
(lp4
I188
aI177
aI200
aI112
aI27
asI2000
(lp5
I180
aI95
aI79
aI114
aI246
asI5000
(lp6
I235
aI53
aI168
aI115
aI213
asI7000
(lp7
I119
aI82
aI237
aI85
aI143
asI3000
(lp8
I31
aI102
aI201
aI26
aI37
asS'day'
p9
I18080
s.